target datalayout = "e-m:e-p270:32:32-p271:32:32-p272:64:64-i64:64-i128:128-f80:128-n8:16:32:64-S128"
target triple = "x86_64-pc-linux-gnu"

%struct.lf_state = type { ptr, i64, [32 x ptr] }
%struct.refill_data = type { ptr, i64, ptr }
%struct.cache_line = type { i64, [512 x i8] }

@stderr = external global ptr, align 8
@.str = private unnamed_addr constant [4 x i8] c"%s\0A\00", align 1
@.str.1 = private unnamed_addr constant [14 x i8] c"Out of memory\00", align 1

; Function Attrs: nounwind uwtable
define internal signext i8 @CORD_lf_func(i64 noundef %0, ptr noundef %1) #0 {
  %3 = alloca i8, align 1
  %4 = alloca i64, align 8
  %5 = alloca ptr, align 8
  %6 = alloca ptr, align 8
  %7 = alloca ptr, align 8
  %8 = alloca ptr, align 8
  %9 = alloca ptr, align 8
  %10 = alloca %struct.refill_data, align 8
  %11 = alloca i32, align 4
  store i64 %0, ptr %4, align 8, !tbaa !11
  store ptr %1, ptr %5, align 8, !tbaa !28
  call void @llvm.lifetime.start.p0(i64 8, ptr %6) #9
  %12 = load ptr, ptr %5, align 8, !tbaa !28
  store ptr %12, ptr %6, align 8, !tbaa !28
  call void @llvm.lifetime.start.p0(i64 8, ptr %7) #9
  %13 = load ptr, ptr %6, align 8, !tbaa !28
  %14 = getelementptr inbounds nuw %struct.lf_state, ptr %13, i32 0, i32 2
  %15 = load i64, ptr %4, align 8, !tbaa !11
  %16 = and i64 %15, 16383
  %17 = lshr i64 %16, 9
  %18 = getelementptr inbounds nuw [32 x ptr], ptr %14, i64 0, i64 %17
  store ptr %18, ptr %7, align 8, !tbaa !28
  call void @llvm.lifetime.start.p0(i64 8, ptr %8) #9
  %19 = load ptr, ptr %7, align 8, !tbaa !28
  %20 = load atomic volatile i64, ptr %19 acquire, align 8
  store i64 %20, ptr %9, align 8
  %21 = load ptr, ptr %9, align 8, !tbaa !28
  store ptr %21, ptr %8, align 8, !tbaa !28
  %22 = load ptr, ptr %8, align 8, !tbaa !28
  %23 = icmp eq ptr null, %22
  br i1 %23, label %31, label %24

24:                                               ; preds = %2
  %25 = load ptr, ptr %8, align 8, !tbaa !28
  %26 = getelementptr inbounds nuw %struct.cache_line, ptr %25, i32 0, i32 0
  %27 = load i64, ptr %26, align 8, !tbaa !29
  %28 = load i64, ptr %4, align 8, !tbaa !11
  %29 = lshr i64 %28, 9
  %30 = icmp ne i64 %27, %29
  br i1 %30, label %31, label %48

31:                                               ; preds = %24, %2
  call void @llvm.lifetime.start.p0(i64 24, ptr %10) #9
  %32 = load ptr, ptr %6, align 8, !tbaa !28
  %33 = getelementptr inbounds nuw %struct.refill_data, ptr %10, i32 0, i32 0
  store ptr %32, ptr %33, align 8, !tbaa !44
  %34 = load i64, ptr %4, align 8, !tbaa !11
  %35 = getelementptr inbounds nuw %struct.refill_data, ptr %10, i32 0, i32 1
  store i64 %34, ptr %35, align 8, !tbaa !46
  %36 = call noalias ptr @GC_malloc_atomic(i64 noundef 520) #10
  %37 = getelementptr inbounds nuw %struct.refill_data, ptr %10, i32 0, i32 2
  store ptr %36, ptr %37, align 8, !tbaa !47
  %38 = getelementptr inbounds nuw %struct.refill_data, ptr %10, i32 0, i32 2
  %39 = load ptr, ptr %38, align 8, !tbaa !47
  %40 = icmp eq ptr null, %39
  br i1 %40, label %41, label %44

41:                                               ; preds = %31
  call void @CORD__call_oom_fn()
  %42 = load ptr, ptr @stderr, align 8, !tbaa !9
  %43 = call i32 (ptr, ptr, ...) @fprintf(ptr noundef %42, ptr noundef @.str, ptr noundef @.str.1) #9
  call void @abort() #11
  unreachable

44:                                               ; preds = %31
  %45 = call ptr @GC_call_with_alloc_lock(ptr noundef @refill_cache, ptr noundef %10)
  %46 = ptrtoint ptr %45 to i64
  %47 = trunc i64 %46 to i8
  store i8 %47, ptr %3, align 1
  store i32 1, ptr %11, align 4
  call void @llvm.lifetime.end.p0(i64 24, ptr %10) #9
  br label %55

48:                                               ; preds = %24
  %49 = load ptr, ptr %8, align 8, !tbaa !28
  %50 = getelementptr inbounds nuw %struct.cache_line, ptr %49, i32 0, i32 1
  %51 = load i64, ptr %4, align 8, !tbaa !11
  %52 = and i64 %51, 511
  %53 = getelementptr inbounds nuw [512 x i8], ptr %50, i64 0, i64 %52
  %54 = load i8, ptr %53, align 1, !tbaa !8
  store i8 %54, ptr %3, align 1
  store i32 1, ptr %11, align 4
  br label %55

55:                                               ; preds = %48, %44
  call void @llvm.lifetime.end.p0(i64 8, ptr %8) #9
  call void @llvm.lifetime.end.p0(i64 8, ptr %7) #9
  call void @llvm.lifetime.end.p0(i64 8, ptr %6) #9
  %56 = load i8, ptr %3, align 1
  ret i8 %56
}