; Function Attrs: nounwind uwtable
define internal signext i8 @CORD_lf_func(i64 noundef %0, ptr noundef %1) #0 {
  %3 = alloca %struct.refill_data, align 8
  %4 = getelementptr inbounds nuw i8, ptr %1, i64 16
  %5 = lshr i64 %0, 9
  %6 = and i64 %5, 31
  %7 = getelementptr inbounds nuw [32 x ptr], ptr %4, i64 0, i64 %6
  %8 = load atomic volatile i64, ptr %7 acquire, align 8
  %9 = inttoptr i64 %8 to ptr
  %10 = icmp eq i64 %8, 0
  br i1 %10, label %13, label %11

11:                                               ; preds = %2
  %12 = load i64, ptr %9, align 8, !tbaa !26
  %.not = icmp eq i64 %12, %5
  br i1 %.not, label %25, label %13

13:                                               ; preds = %11, %2
  call void @llvm.lifetime.start.p0(i64 24, ptr nonnull %3) #16
  store ptr %1, ptr %3, align 8, !tbaa !40
  %14 = getelementptr inbounds nuw i8, ptr %3, i64 8
  store i64 %0, ptr %14, align 8, !tbaa !42
  %15 = tail call noalias dereferenceable_or_null(520) ptr @GC_malloc_atomic(i64 noundef 520) #17
  %16 = getelementptr inbounds nuw i8, ptr %3, i64 16
  store ptr %15, ptr %16, align 8, !tbaa !43
  %17 = icmp eq ptr %15, null
  br i1 %17, label %18, label %21

18:                                               ; preds = %13
  tail call void @CORD__call_oom_fn() #16
  %19 = load ptr, ptr @stderr, align 8, !tbaa !3
  %20 = tail call i32 (ptr, ptr, ...) @fprintf(ptr noundef %19, ptr noundef nonnull @.str, ptr noundef nonnull @.str.1) #18
  tail call void @abort() #19
  unreachable

21:                                               ; preds = %13
  %22 = call ptr @GC_call_with_alloc_lock(ptr noundef nonnull @refill_cache, ptr noundef nonnull %3) #16
  %23 = ptrtoint ptr %22 to i64
  %24 = trunc i64 %23 to i8
  call void @llvm.lifetime.end.p0(i64 24, ptr nonnull %3) #16
  br label %30

25:                                               ; preds = %11
  %26 = getelementptr inbounds nuw i8, ptr %9, i64 8
  %27 = and i64 %0, 511
  %28 = getelementptr inbounds nuw [512 x i8], ptr %26, i64 0, i64 %27
  %29 = load i8, ptr %28, align 1, !tbaa !8
  br label %30

30:                                               ; preds = %25, %21
  %.0 = phi i8 [ %24, %21 ], [ %29, %25 ]
  ret i8 %.0
}